(lp0
cnumpy.core.multiarray
scalar
p1
(cnumpy
dtype
p2
(S'S8'
p3
I0
I1
tp4
Rp5
(I3
S'|'
p6
NNNI8
I1
I0
tp7
bS'squirrel'
p8
tp9
Rp10
ag1
(g2
(S'S10'
p11
I0
I1
tp12
Rp13
(I3
S'|'
p14
NNNI10
I1
I0
tp15
bS'sea turtle'
p16
tp17
Rp18
ag1
(g2
(S'S8'
p19
I0
I1
tp20
Rp21
(I3
S'|'
p22
NNNI8
I1
I0
tp23
bS'kangaroo'
p24
tp25
Rp26
ag1
(g2
(S'S9'
p27
I0
I1
tp28
Rp29
(I3
S'|'
p30
NNNI9
I1
I0
tp31
bS'paint can'
p32
tp33
Rp34
ag1
(g2
(S'S4'
p35
I0
I1
tp36
Rp37
(I3
S'|'
p38
NNNI4
I1
I0
tp39
bS'rain'
p40
tp41
Rp42
ag1
(g2
(S'S7'
p43
I0
I1
tp44
Rp45
(I3
S'|'
p46
NNNI7
I1
I0
tp47
bS'lighter'
p48
tp49
Rp50
ag1
(g2
(S'S12'
p51
I0
I1
tp52
Rp53
(I3
S'|'
p54
NNNI12
I1
I0
tp55
bS'hockey stick'
p56
tp57
Rp58
ag1
(g2
(S'S5'
p59
I0
I1
tp60
Rp61
(I3
S'|'
p62
NNNI5
I1
I0
tp63
bS'panda'
p64
tp65
Rp66
ag1
(g2
(S'S16'
p67
I0
I1
tp68
Rp69
(I3
S'|'
p70
NNNI16
I1
I0
tp71
bS'aircraft carrier'
p72
tp73
Rp74
ag1
(g2
(S'S8'
p75
I0
I1
tp76
Rp77
(I3
S'|'
p78
NNNI8
I1
I0
tp79
bS'stitches'
p80
tp81
Rp82
a.