(lp0
cnumpy.core.multiarray
scalar
p1
(cnumpy
dtype
p2
(S'S6'
p3
I0
I1
tp4
Rp5
(I3
S'|'
p6
NNNI6
I1
I0
tp7
bS'banana'
p8
tp9
Rp10
ag1
(g2
(S'S6'
p11
I0
I1
tp12
Rp13
(I3
S'|'
p14
NNNI6
I1
I0
tp15
bS'eraser'
p16
tp17
Rp18
ag1
(g2
(S'S4'
p19
I0
I1
tp20
Rp21
(I3
S'|'
p22
NNNI4
I1
I0
tp23
bS'belt'
p24
tp25
Rp26
a.